target datalayout = "e-m:e-p270:32:32-p271:32:32-p272:64:64-i64:64-i128:128-f80:128-n8:16:32:64-S128"
target triple = "x86_64-pc-linux-gnu"

%struct._lv_draw_buf_handlers_t = type { ptr, ptr, ptr, ptr, ptr, ptr }
%struct._lv_image_decoder_dsc_t = type { ptr, %struct._lv_image_decoder_args_t, ptr, i32, %struct.lv_fs_file_t, %struct.lv_image_header_t, ptr, ptr, i32, i32, ptr, ptr, ptr, ptr }
%struct._lv_image_decoder_args_t = type { i8, i8, i8, i8, i8 }
%struct.lv_fs_file_t = type { ptr, ptr, ptr }
%struct.lv_image_header_t = type <{ i64, i32 }>
%struct.lv_image_dsc_t = type { %struct.lv_image_header_t, i32, ptr, ptr }
%struct._lv_image_cache_data_t = type { %struct._lv_cache_slot_size_t, ptr, i32, ptr, ptr, ptr }
%struct._lv_cache_slot_size_t = type { i64 }
%struct._lv_draw_buf_t = type { %struct.lv_image_header_t, i32, ptr, ptr, ptr }

@.str.1 = private unnamed_addr constant [4 x i8] c"svg\00", align 1
@_svg_draw_buf_handler = internal global %struct._lv_draw_buf_handlers_t { ptr null, ptr @svg_draw_buf_free, ptr null, ptr null, ptr null, ptr null }, align 8

; Function Attrs: nounwind uwtable
define internal ptr @alloc_file(ptr noundef %0, ptr noundef %1) #0 {
  %3 = alloca ptr, align 8
  %4 = alloca ptr, align 8
  %5 = alloca ptr, align 8
  %6 = alloca ptr, align 8
  %7 = alloca %struct.lv_fs_file_t, align 8
  %8 = alloca i32, align 4
  %9 = alloca i32, align 4
  %10 = alloca i32, align 4
  %11 = alloca i32, align 4
  store ptr %0, ptr %4, align 8, !tbaa !28
  store ptr %1, ptr %5, align 8, !tbaa !92
  call void @llvm.lifetime.start.p0(i64 8, ptr %6) #4
  store ptr null, ptr %6, align 8, !tbaa !28
  call void @llvm.lifetime.start.p0(i64 24, ptr %7) #4
  call void @llvm.lifetime.start.p0(i64 4, ptr %8) #4
  call void @llvm.lifetime.start.p0(i64 4, ptr %9) #4
  call void @llvm.lifetime.start.p0(i64 4, ptr %10) #4
  %12 = load ptr, ptr %5, align 8, !tbaa !92
  store i32 0, ptr %12, align 4, !tbaa !26
  %13 = load ptr, ptr %4, align 8, !tbaa !28
  %14 = call i32 @lv_fs_open(ptr noundef %7, ptr noundef %13, i32 noundef 2)
  store i32 %14, ptr %10, align 4, !tbaa !26
  %15 = load i32, ptr %10, align 4, !tbaa !26
  %16 = icmp ne i32 %15, 0
  br i1 %16, label %17, label %21

17:                                               ; preds = %2
  br label %18

18:                                               ; preds = %17
  br label %19

19:                                               ; preds = %18
  br label %20

20:                                               ; preds = %19
  store ptr null, ptr %3, align 8
  store i32 1, ptr %11, align 4
  br label %68

21:                                               ; preds = %2
  %22 = call i32 @lv_fs_seek(ptr noundef %7, i32 noundef 0, i32 noundef 2)
  store i32 %22, ptr %10, align 4, !tbaa !26
  %23 = load i32, ptr %10, align 4, !tbaa !26
  %24 = icmp ne i32 %23, 0
  br i1 %24, label %25, label %26

25:                                               ; preds = %21
  br label %65

26:                                               ; preds = %21
  %27 = call i32 @lv_fs_tell(ptr noundef %7, ptr noundef %8)
  store i32 %27, ptr %10, align 4, !tbaa !26
  %28 = load i32, ptr %10, align 4, !tbaa !26
  %29 = icmp ne i32 %28, 0
  br i1 %29, label %30, label %31

30:                                               ; preds = %26
  br label %65

31:                                               ; preds = %26
  %32 = call i32 @lv_fs_seek(ptr noundef %7, i32 noundef 0, i32 noundef 0)
  store i32 %32, ptr %10, align 4, !tbaa !26
  %33 = load i32, ptr %10, align 4, !tbaa !26
  %34 = icmp ne i32 %33, 0
  br i1 %34, label %35, label %36

35:                                               ; preds = %31
  br label %65

36:                                               ; preds = %31
  %37 = load i32, ptr %8, align 4, !tbaa !26
  %38 = zext i32 %37 to i64
  %39 = call ptr @lv_malloc(i64 noundef %38)
  store ptr %39, ptr %6, align 8, !tbaa !28
  %40 = load ptr, ptr %6, align 8, !tbaa !28
  %41 = icmp eq ptr %40, null
  br i1 %41, label %42, label %46

42:                                               ; preds = %36
  br label %43

43:                                               ; preds = %42
  br label %44

44:                                               ; preds = %43
  br label %45

45:                                               ; preds = %44
  br label %65

46:                                               ; preds = %36
  %47 = load ptr, ptr %6, align 8, !tbaa !28
  %48 = load i32, ptr %8, align 4, !tbaa !26
  %49 = call i32 @lv_fs_read(ptr noundef %7, ptr noundef %47, i32 noundef %48, ptr noundef %9)
  store i32 %49, ptr %10, align 4, !tbaa !26
  %50 = load i32, ptr %10, align 4, !tbaa !26
  %51 = icmp eq i32 %50, 0
  br i1 %51, label %52, label %59

52:                                               ; preds = %46
  %53 = load i32, ptr %9, align 4, !tbaa !26
  %54 = load i32, ptr %8, align 4, !tbaa !26
  %55 = icmp eq i32 %53, %54
  br i1 %55, label %56, label %59

56:                                               ; preds = %52
  %57 = load i32, ptr %9, align 4, !tbaa !26
  %58 = load ptr, ptr %5, align 8, !tbaa !92
  store i32 %57, ptr %58, align 4, !tbaa !26
  br label %64

59:                                               ; preds = %52, %46
  br label %60

60:                                               ; preds = %59
  br label %61

61:                                               ; preds = %60
  br label %62

62:                                               ; preds = %61
  %63 = load ptr, ptr %6, align 8, !tbaa !28
  call void @lv_free(ptr noundef %63)
  store ptr null, ptr %6, align 8, !tbaa !28
  br label %64

64:                                               ; preds = %62, %56
  br label %65

65:                                               ; preds = %64, %45, %35, %30, %25
  %66 = call i32 @lv_fs_close(ptr noundef %7)
  %67 = load ptr, ptr %6, align 8, !tbaa !28
  store ptr %67, ptr %3, align 8
  store i32 1, ptr %11, align 4
  br label %68

68:                                               ; preds = %65, %20
  call void @llvm.lifetime.end.p0(i64 4, ptr %10) #4
  call void @llvm.lifetime.end.p0(i64 4, ptr %9) #4
  call void @llvm.lifetime.end.p0(i64 4, ptr %8) #4
  call void @llvm.lifetime.end.p0(i64 24, ptr %7) #4
  call void @llvm.lifetime.end.p0(i64 8, ptr %6) #4
  %69 = load ptr, ptr %3, align 8
  ret ptr %69
}

; Function Attrs: nounwind uwtable
define internal i32 @svg_decoder_open(ptr noundef %0, ptr noundef %1) #0 {
  %3 = alloca i32, align 4
  %4 = alloca ptr, align 8
  %5 = alloca ptr, align 8
  %6 = alloca ptr, align 8
  %7 = alloca i32, align 4
  %8 = alloca ptr, align 8
  %9 = alloca i32, align 4
  %10 = alloca ptr, align 8
  %11 = alloca ptr, align 8
  %12 = alloca ptr, align 8
  %13 = alloca ptr, align 8
  %14 = alloca %struct._lv_image_cache_data_t, align 8
  %15 = alloca ptr, align 8
  store ptr %0, ptr %4, align 8, !tbaa !3
  store ptr %1, ptr %5, align 8, !tbaa !11
  call void @llvm.lifetime.start.p0(i64 8, ptr %6) #4
  store ptr null, ptr %6, align 8, !tbaa !28
  call void @llvm.lifetime.start.p0(i64 4, ptr %7) #4
  store i32 0, ptr %7, align 4, !tbaa !26
  %16 = load ptr, ptr %5, align 8, !tbaa !11
  %17 = getelementptr inbounds nuw %struct._lv_image_decoder_dsc_t, ptr %16, i32 0, i32 3
  %18 = load i32, ptr %17, align 8, !tbaa !14
  %19 = icmp eq i32 %18, 1
  br i1 %19, label %20, label %43

20:                                               ; preds = %2
  call void @llvm.lifetime.start.p0(i64 8, ptr %8) #4
  %21 = load ptr, ptr %5, align 8, !tbaa !11
  %22 = getelementptr inbounds nuw %struct._lv_image_decoder_dsc_t, ptr %21, i32 0, i32 2
  %23 = load ptr, ptr %22, align 8, !tbaa !27
  store ptr %23, ptr %8, align 8, !tbaa !28
  %24 = load ptr, ptr %8, align 8, !tbaa !28
  %25 = call ptr @lv_fs_get_ext(ptr noundef %24)
  %26 = call i32 @lv_strcmp(ptr noundef %25, ptr noundef @.str.1)
  %27 = icmp eq i32 %26, 0
  br i1 %27, label %28, label %38

28:                                               ; preds = %20
  %29 = load ptr, ptr %8, align 8, !tbaa !28
  %30 = call ptr @alloc_file(ptr noundef %29, ptr noundef %7)
  store ptr %30, ptr %6, align 8, !tbaa !28
  %31 = load ptr, ptr %6, align 8, !tbaa !28
  %32 = icmp eq ptr %31, null
  br i1 %32, label %33, label %37

33:                                               ; preds = %28
  br label %34

34:                                               ; preds = %33
  br label %35

35:                                               ; preds = %34
  br label %36

36:                                               ; preds = %35
  store i32 0, ptr %3, align 4
  store i32 1, ptr %9, align 4
  br label %40

37:                                               ; preds = %28
  br label %39

38:                                               ; preds = %20
  store i32 0, ptr %3, align 4
  store i32 1, ptr %9, align 4
  br label %40

39:                                               ; preds = %37
  store i32 0, ptr %9, align 4
  br label %40

40:                                               ; preds = %39, %38, %36
  call void @llvm.lifetime.end.p0(i64 8, ptr %8) #4
  %41 = load i32, ptr %9, align 4
  switch i32 %41, label %160 [
    i32 0, label %42
  ]

42:                                               ; preds = %40
  br label %60

43:                                               ; preds = %2
  %44 = load ptr, ptr %5, align 8, !tbaa !11
  %45 = getelementptr inbounds nuw %struct._lv_image_decoder_dsc_t, ptr %44, i32 0, i32 3
  %46 = load i32, ptr %45, align 8, !tbaa !14
  %47 = icmp eq i32 %46, 0
  br i1 %47, label %48, label %58

48:                                               ; preds = %43
  call void @llvm.lifetime.start.p0(i64 8, ptr %10) #4
  %49 = load ptr, ptr %5, align 8, !tbaa !11
  %50 = getelementptr inbounds nuw %struct._lv_image_decoder_dsc_t, ptr %49, i32 0, i32 2
  %51 = load ptr, ptr %50, align 8, !tbaa !27
  store ptr %51, ptr %10, align 8, !tbaa !13
  %52 = load ptr, ptr %10, align 8, !tbaa !13
  %53 = getelementptr inbounds nuw %struct.lv_image_dsc_t, ptr %52, i32 0, i32 2
  %54 = load ptr, ptr %53, align 8, !tbaa !57
  store ptr %54, ptr %6, align 8, !tbaa !28
  %55 = load ptr, ptr %10, align 8, !tbaa !13
  %56 = getelementptr inbounds nuw %struct.lv_image_dsc_t, ptr %55, i32 0, i32 1
  %57 = load i32, ptr %56, align 4, !tbaa !55
  store i32 %57, ptr %7, align 4, !tbaa !26
  call void @llvm.lifetime.end.p0(i64 8, ptr %10) #4
  br label %59

58:                                               ; preds = %43
  store i32 0, ptr %3, align 4
  store i32 1, ptr %9, align 4
  br label %160

59:                                               ; preds = %48
  br label %60

60:                                               ; preds = %59, %42
  call void @llvm.lifetime.start.p0(i64 8, ptr %11) #4
  %61 = load ptr, ptr %6, align 8, !tbaa !28
  %62 = load i32, ptr %7, align 4, !tbaa !26
  %63 = call ptr @lv_svg_load_data(ptr noundef %61, i32 noundef %62)
  store ptr %63, ptr %11, align 8, !tbaa !13
  call void @llvm.lifetime.start.p0(i64 8, ptr %12) #4
  %64 = load ptr, ptr %11, align 8, !tbaa !13
  %65 = call ptr @lv_svg_render_create(ptr noundef %64)
  store ptr %65, ptr %12, align 8, !tbaa !32
  %66 = load ptr, ptr %5, align 8, !tbaa !11
  %67 = getelementptr inbounds nuw %struct._lv_image_decoder_dsc_t, ptr %66, i32 0, i32 3
  %68 = load i32, ptr %67, align 8, !tbaa !14
  %69 = icmp eq i32 %68, 1
  br i1 %69, label %70, label %72

70:                                               ; preds = %60
  %71 = load ptr, ptr %6, align 8, !tbaa !28
  call void @lv_free(ptr noundef %71)
  br label %72

72:                                               ; preds = %70, %60
  %73 = load ptr, ptr %11, align 8, !tbaa !13
  call void @lv_svg_node_delete(ptr noundef %73)
  call void @llvm.lifetime.start.p0(i64 8, ptr %13) #4
  %74 = call ptr @lv_zalloc(i64 noundef 40)
  store ptr %74, ptr %13, align 8, !tbaa !59
  %75 = load ptr, ptr %13, align 8, !tbaa !59
  %76 = getelementptr inbounds nuw %struct._lv_draw_buf_t, ptr %75, i32 0, i32 0
  %77 = load i64, ptr %76, align 8
  %78 = and i64 %77, -281470681743361
  %79 = or i64 %78, 4294967296
  store i64 %79, ptr %76, align 8
  %80 = load ptr, ptr %13, align 8, !tbaa !59
  %81 = getelementptr inbounds nuw %struct._lv_draw_buf_t, ptr %80, i32 0, i32 0
  %82 = load i64, ptr %81, align 8
  %83 = and i64 %82, 281474976710655
  %84 = or i64 %83, 281474976710656
  store i64 %84, ptr %81, align 8
  %85 = load ptr, ptr %13, align 8, !tbaa !59
  %86 = getelementptr inbounds nuw %struct._lv_draw_buf_t, ptr %85, i32 0, i32 0
  %87 = load i64, ptr %86, align 8
  %88 = and i64 %87, -65281
  %89 = or i64 %88, 4096
  store i64 %89, ptr %86, align 8
  %90 = load ptr, ptr %13, align 8, !tbaa !59
  %91 = getelementptr inbounds nuw %struct._lv_draw_buf_t, ptr %90, i32 0, i32 0
  %92 = load i64, ptr %91, align 8
  %93 = and i64 %92, -4294901761
  %94 = or i64 %93, 5242880
  store i64 %94, ptr %91, align 8
  %95 = load ptr, ptr %13, align 8, !tbaa !59
  %96 = getelementptr inbounds nuw %struct._lv_draw_buf_t, ptr %95, i32 0, i32 0
  %97 = getelementptr inbounds nuw %struct.lv_image_header_t, ptr %96, i32 0, i32 1
  %98 = load i32, ptr %97, align 8
  %99 = and i32 %98, -65536
  %100 = or i32 %99, 4
  store i32 %100, ptr %97, align 8
  %101 = load ptr, ptr %13, align 8, !tbaa !59
  %102 = getelementptr inbounds nuw %struct._lv_draw_buf_t, ptr %101, i32 0, i32 0
  %103 = load i64, ptr %102, align 8
  %104 = and i64 %103, -256
  %105 = or i64 %104, 25
  store i64 %105, ptr %102, align 8
  %106 = load ptr, ptr %13, align 8, !tbaa !59
  %107 = getelementptr inbounds nuw %struct._lv_draw_buf_t, ptr %106, i32 0, i32 2
  store ptr null, ptr %107, align 8, !tbaa !60
  %108 = load ptr, ptr %12, align 8, !tbaa !32
  %109 = load ptr, ptr %13, align 8, !tbaa !59
  %110 = getelementptr inbounds nuw %struct._lv_draw_buf_t, ptr %109, i32 0, i32 3
  store ptr %108, ptr %110, align 8, !tbaa !63
  %111 = load ptr, ptr %12, align 8, !tbaa !32
  %112 = call i32 @lv_svg_render_get_size(ptr noundef %111)
  %113 = load ptr, ptr %13, align 8, !tbaa !59
  %114 = getelementptr inbounds nuw %struct._lv_draw_buf_t, ptr %113, i32 0, i32 1
  store i32 %112, ptr %114, align 4, !tbaa !64
  %115 = load ptr, ptr %13, align 8, !tbaa !59
  %116 = getelementptr inbounds nuw %struct._lv_draw_buf_t, ptr %115, i32 0, i32 4
  store ptr @_svg_draw_buf_handler, ptr %116, align 8, !tbaa !65
  %117 = load ptr, ptr %13, align 8, !tbaa !59
  %118 = load ptr, ptr %5, align 8, !tbaa !11
  %119 = getelementptr inbounds nuw %struct._lv_image_decoder_dsc_t, ptr %118, i32 0, i32 6
  store ptr %117, ptr %119, align 8, !tbaa !66
  %120 = load ptr, ptr %5, align 8, !tbaa !11
  %121 = getelementptr inbounds nuw %struct._lv_image_decoder_dsc_t, ptr %120, i32 0, i32 1
  %122 = getelementptr inbounds nuw %struct._lv_image_decoder_args_t, ptr %121, i32 0, i32 2
  %123 = load i8, ptr %122, align 2, !tbaa !67, !range !68, !noundef !69
  %124 = trunc i8 %123 to i1
  br i1 %124, label %158, label %125

125:                                              ; preds = %72
  %126 = call zeroext i1 @lv_image_cache_is_enabled()
  br i1 %126, label %127, label %158

127:                                              ; preds = %125
  call void @llvm.lifetime.start.p0(i64 48, ptr %14) #4
  %128 = load ptr, ptr %5, align 8, !tbaa !11
  %129 = getelementptr inbounds nuw %struct._lv_image_decoder_dsc_t, ptr %128, i32 0, i32 3
  %130 = load i32, ptr %129, align 8, !tbaa !14
  %131 = getelementptr inbounds nuw %struct._lv_image_cache_data_t, ptr %14, i32 0, i32 2
  store i32 %130, ptr %131, align 8, !tbaa !70
  %132 = load ptr, ptr %5, align 8, !tbaa !11
  %133 = getelementptr inbounds nuw %struct._lv_image_decoder_dsc_t, ptr %132, i32 0, i32 2
  %134 = load ptr, ptr %133, align 8, !tbaa !27
  %135 = getelementptr inbounds nuw %struct._lv_image_cache_data_t, ptr %14, i32 0, i32 1
  store ptr %134, ptr %135, align 8, !tbaa !73
  %136 = load ptr, ptr %5, align 8, !tbaa !11
  %137 = getelementptr inbounds nuw %struct._lv_image_decoder_dsc_t, ptr %136, i32 0, i32 6
  %138 = load ptr, ptr %137, align 8, !tbaa !66
  %139 = getelementptr inbounds nuw %struct._lv_draw_buf_t, ptr %138, i32 0, i32 1
  %140 = load i32, ptr %139, align 4, !tbaa !64
  %141 = zext i32 %140 to i64
  %142 = getelementptr inbounds nuw %struct._lv_image_cache_data_t, ptr %14, i32 0, i32 0
  %143 = getelementptr inbounds nuw %struct._lv_cache_slot_size_t, ptr %142, i32 0, i32 0
  store i64 %141, ptr %143, align 8, !tbaa !74
  call void @llvm.lifetime.start.p0(i64 8, ptr %15) #4
  %144 = load ptr, ptr %4, align 8, !tbaa !3
  %145 = load ptr, ptr %13, align 8, !tbaa !59
  %146 = call ptr @lv_image_decoder_add_to_cache(ptr noundef %144, ptr noundef %14, ptr noundef %145, ptr noundef null)
  store ptr %146, ptr %15, align 8, !tbaa !75
  %147 = load ptr, ptr %15, align 8, !tbaa !75
  %148 = icmp eq ptr %147, null
  br i1 %148, label %149, label %151

149:                                              ; preds = %127
  %150 = load ptr, ptr %13, align 8, !tbaa !59
  call void @lv_draw_buf_destroy(ptr noundef %150)
  store i32 0, ptr %3, align 4
  store i32 1, ptr %9, align 4
  br label %155

151:                                              ; preds = %127
  %152 = load ptr, ptr %15, align 8, !tbaa !75
  %153 = load ptr, ptr %5, align 8, !tbaa !11
  %154 = getelementptr inbounds nuw %struct._lv_image_decoder_dsc_t, ptr %153, i32 0, i32 12
  store ptr %152, ptr %154, align 8, !tbaa !76
  store i32 0, ptr %9, align 4
  br label %155

155:                                              ; preds = %151, %149
  call void @llvm.lifetime.end.p0(i64 8, ptr %15) #4
  call void @llvm.lifetime.end.p0(i64 48, ptr %14) #4
  %156 = load i32, ptr %9, align 4
  switch i32 %156, label %159 [
    i32 0, label %157
  ]

157:                                              ; preds = %155
  br label %158

158:                                              ; preds = %157, %125, %72
  store i32 1, ptr %3, align 4
  store i32 1, ptr %9, align 4
  br label %159

159:                                              ; preds = %158, %155
  call void @llvm.lifetime.end.p0(i64 8, ptr %13) #4
  call void @llvm.lifetime.end.p0(i64 8, ptr %12) #4
  call void @llvm.lifetime.end.p0(i64 8, ptr %11) #4
  br label %160

160:                                              ; preds = %159, %58, %40
  call void @llvm.lifetime.end.p0(i64 4, ptr %7) #4
  call void @llvm.lifetime.end.p0(i64 8, ptr %6) #4
  %161 = load i32, ptr %3, align 4
  ret i32 %161
}