; Function Attrs: nounwind uwtable
define internal range(i32 0, 2) i32 @svg_decoder_open(ptr noundef %0, ptr noundef captures(none) %1) #0 {
  %3 = alloca %struct.lv_fs_file_t, align 8
  %4 = alloca i32, align 4
  %5 = alloca i32, align 4
  %6 = alloca %struct._lv_image_cache_data_t, align 8
  %7 = getelementptr inbounds nuw i8, ptr %1, i64 24
  %8 = load i32, ptr %7, align 8, !tbaa !9
  switch i32 %8, label %.thread [
    i32 1, label %9
    i32 0, label %40
  ]

9:                                                ; preds = %2
  %10 = getelementptr inbounds nuw i8, ptr %1, i64 16
  %11 = load ptr, ptr %10, align 8, !tbaa !22
  %12 = tail call ptr @lv_fs_get_ext(ptr noundef %11) #4
  %13 = tail call i32 @lv_strcmp(ptr noundef %12, ptr noundef nonnull @.str.1) #4
  %14 = icmp eq i32 %13, 0
  br i1 %14, label %15, label %.thread

15:                                               ; preds = %9
  call void @llvm.lifetime.start.p0(i64 24, ptr nonnull %3) #4
  call void @llvm.lifetime.start.p0(i64 4, ptr nonnull %4) #4
  call void @llvm.lifetime.start.p0(i64 4, ptr nonnull %5) #4
  %16 = call i32 @lv_fs_open(ptr noundef nonnull %3, ptr noundef %11, i32 noundef 2) #4
  %.not.i = icmp eq i32 %16, 0
  br i1 %.not.i, label %17, label %.thread53

.thread53:                                        ; preds = %15
  call void @llvm.lifetime.end.p0(i64 4, ptr nonnull %5) #4
  call void @llvm.lifetime.end.p0(i64 4, ptr nonnull %4) #4
  call void @llvm.lifetime.end.p0(i64 24, ptr nonnull %3) #4
  br label %.thread

17:                                               ; preds = %15
  %18 = call i32 @lv_fs_seek(ptr noundef nonnull %3, i32 noundef 0, i32 noundef 2) #4
  %.not15.i = icmp eq i32 %18, 0
  br i1 %.not15.i, label %19, label %.thread57

19:                                               ; preds = %17
  %20 = call i32 @lv_fs_tell(ptr noundef nonnull %3, ptr noundef nonnull %4) #4
  %.not16.i = icmp eq i32 %20, 0
  br i1 %.not16.i, label %21, label %.thread57

21:                                               ; preds = %19
  %22 = call i32 @lv_fs_seek(ptr noundef nonnull %3, i32 noundef 0, i32 noundef 0) #4
  %.not17.i = icmp eq i32 %22, 0
  br i1 %.not17.i, label %23, label %.thread57

23:                                               ; preds = %21
  %24 = load i32, ptr %4, align 4, !tbaa !23
  %25 = zext i32 %24 to i64
  %26 = call ptr @lv_malloc(i64 noundef %25) #4
  %27 = icmp eq ptr %26, null
  br i1 %27, label %.thread57, label %28

28:                                               ; preds = %23
  %29 = load i32, ptr %4, align 4, !tbaa !23
  %30 = call i32 @lv_fs_read(ptr noundef nonnull %3, ptr noundef nonnull %26, i32 noundef %29, ptr noundef nonnull %5) #4
  %31 = icmp eq i32 %30, 0
  br i1 %31, label %32, label %36

32:                                               ; preds = %28
  %33 = load i32, ptr %5, align 4, !tbaa !23
  %34 = load i32, ptr %4, align 4, !tbaa !23
  %35 = icmp eq i32 %33, %34
  br i1 %35, label %38, label %36

36:                                               ; preds = %32, %28
  call void @lv_free(ptr noundef nonnull %26) #4
  br label %.thread57

.thread57:                                        ; preds = %17, %19, %21, %23, %36
  %37 = call i32 @lv_fs_close(ptr noundef nonnull %3) #4
  call void @llvm.lifetime.end.p0(i64 4, ptr nonnull %5) #4
  call void @llvm.lifetime.end.p0(i64 4, ptr nonnull %4) #4
  call void @llvm.lifetime.end.p0(i64 24, ptr nonnull %3) #4
  br label %.thread

38:                                               ; preds = %32
  %39 = call i32 @lv_fs_close(ptr noundef nonnull %3) #4
  call void @llvm.lifetime.end.p0(i64 4, ptr nonnull %5) #4
  call void @llvm.lifetime.end.p0(i64 4, ptr nonnull %4) #4
  call void @llvm.lifetime.end.p0(i64 24, ptr nonnull %3) #4
  br label %47

40:                                               ; preds = %2
  %41 = getelementptr inbounds nuw i8, ptr %1, i64 16
  %42 = load ptr, ptr %41, align 8, !tbaa !22
  %43 = getelementptr inbounds nuw i8, ptr %42, i64 16
  %44 = load ptr, ptr %43, align 8, !tbaa !51
  %45 = getelementptr inbounds nuw i8, ptr %42, i64 12
  %46 = load i32, ptr %45, align 4, !tbaa !49
  br label %47

47:                                               ; preds = %38, %40
  %.149 = phi i32 [ %46, %40 ], [ %33, %38 ]
  %.142 = phi ptr [ %44, %40 ], [ %26, %38 ]
  %48 = call ptr @lv_svg_load_data(ptr noundef %.142, i32 noundef %.149) #4
  %49 = call ptr @lv_svg_render_create(ptr noundef %48) #4
  %50 = load i32, ptr %7, align 8, !tbaa !9
  %51 = icmp eq i32 %50, 1
  br i1 %51, label %52, label %53

52:                                               ; preds = %47
  call void @lv_free(ptr noundef %.142) #4
  br label %53

53:                                               ; preds = %52, %47
  call void @lv_svg_node_delete(ptr noundef %48) #4
  %54 = call ptr @lv_zalloc(i64 noundef 40) #4
  %55 = getelementptr inbounds nuw i8, ptr %54, i64 8
  %56 = load i32, ptr %55, align 8
  %57 = and i32 %56, -65536
  %58 = or disjoint i32 %57, 4
  store i32 %58, ptr %55, align 8
  store i64 281479276924953, ptr %54, align 8
  %59 = getelementptr inbounds nuw i8, ptr %54, i64 16
  store ptr null, ptr %59, align 8, !tbaa !53
  %60 = getelementptr inbounds nuw i8, ptr %54, i64 24
  store ptr %49, ptr %60, align 8, !tbaa !56
  %61 = call i32 @lv_svg_render_get_size(ptr noundef %49) #4
  %62 = getelementptr inbounds nuw i8, ptr %54, i64 12
  store i32 %61, ptr %62, align 4, !tbaa !57
  %63 = getelementptr inbounds nuw i8, ptr %54, i64 32
  store ptr @_svg_draw_buf_handler, ptr %63, align 8, !tbaa !58
  %64 = getelementptr inbounds nuw i8, ptr %1, i64 72
  store ptr %54, ptr %64, align 8, !tbaa !59
  %65 = getelementptr inbounds nuw i8, ptr %1, i64 10
  %66 = load i8, ptr %65, align 2, !tbaa !60, !range !61, !noundef !62
  %67 = trunc nuw i8 %66 to i1
  br i1 %67, label %.thread, label %68

68:                                               ; preds = %53
  %69 = call zeroext i1 @lv_image_cache_is_enabled() #4
  br i1 %69, label %70, label %.thread

70:                                               ; preds = %68
  call void @llvm.lifetime.start.p0(i64 48, ptr nonnull %6) #4
  %71 = load i32, ptr %7, align 8, !tbaa !9
  %72 = getelementptr inbounds nuw i8, ptr %6, i64 16
  store i32 %71, ptr %72, align 8, !tbaa !63
  %73 = getelementptr inbounds nuw i8, ptr %1, i64 16
  %74 = load ptr, ptr %73, align 8, !tbaa !22
  %75 = getelementptr inbounds nuw i8, ptr %6, i64 8
  store ptr %74, ptr %75, align 8, !tbaa !66
  %76 = load ptr, ptr %64, align 8, !tbaa !59
  %77 = getelementptr inbounds nuw i8, ptr %76, i64 12
  %78 = load i32, ptr %77, align 4, !tbaa !57
  %79 = zext i32 %78 to i64
  store i64 %79, ptr %6, align 8, !tbaa !67
  %80 = call ptr @lv_image_decoder_add_to_cache(ptr noundef %0, ptr noundef nonnull %6, ptr noundef nonnull %54, ptr noundef null) #4
  %.not = icmp eq ptr %80, null
  br i1 %.not, label %.thread61, label %81

.thread61:                                        ; preds = %70
  call void @lv_draw_buf_destroy(ptr noundef nonnull %54) #4
  call void @llvm.lifetime.end.p0(i64 48, ptr nonnull %6) #4
  br label %.thread

81:                                               ; preds = %70
  %82 = getelementptr inbounds nuw i8, ptr %1, i64 112
  store ptr %80, ptr %82, align 8, !tbaa !68
  call void @llvm.lifetime.end.p0(i64 48, ptr nonnull %6) #4
  br label %.thread

.thread:                                          ; preds = %9, %53, %68, %81, %.thread61, %.thread57, %.thread53, %2
  %.1 = phi i32 [ 0, %2 ], [ 0, %.thread53 ], [ 0, %.thread57 ], [ 0, %.thread61 ], [ 1, %81 ], [ 1, %68 ], [ 1, %53 ], [ 0, %9 ]
  ret i32 %.1
}